target datalayout = "e-m:e-p270:32:32-p271:32:32-p272:64:64-i64:64-i128:128-f80:128-n8:16:32:64-S128"
target triple = "x86_64-pc-linux-gnu"

%struct.FT_Outline_ = type { i16, i16, ptr, ptr, ptr, i32 }
%struct.FT_Bitmap_ = type { i32, i32, i32, ptr, i16, i8, i8, ptr }
%struct.FT_RendererRec_ = type { %struct.FT_ModuleRec_, ptr, i32, %struct.FT_Glyph_Class_, ptr, ptr, ptr }
%struct.FT_ModuleRec_ = type { ptr, ptr, ptr }
%struct.FT_Glyph_Class_ = type { i64, i32, ptr, ptr, ptr, ptr, ptr, ptr }
%struct.FT_GlyphSlotRec_ = type { ptr, ptr, ptr, i32, %struct.FT_Generic_, %struct.FT_Glyph_Metrics_, i64, i64, %struct.FT_Vector_, i32, %struct.FT_Bitmap_, i32, i32, %struct.FT_Outline_, i32, ptr, ptr, i64, i64, i64, ptr, ptr }
%struct.FT_Generic_ = type { ptr, ptr }
%struct.FT_Glyph_Metrics_ = type { i64, i64, i64, i64, i64, i64, i64, i64 }
%struct.FT_Vector_ = type { i64, i64 }

; Function Attrs: nounwind uwtable
define internal void @ft_raster1_get_cbox(ptr noundef %0, ptr noundef %1, ptr noundef %2) #0 {
  %4 = alloca ptr, align 8
  %5 = alloca ptr, align 8
  %6 = alloca ptr, align 8
  store ptr %0, ptr %4, align 8, !tbaa !62
  store ptr %1, ptr %5, align 8, !tbaa !78
  store ptr %2, ptr %6, align 8, !tbaa !102
  %7 = load ptr, ptr %6, align 8, !tbaa !102
  call void @llvm.memset.p0.i64(ptr align 8 %7, i8 0, i64 32, i1 false)
  %8 = load ptr, ptr %5, align 8, !tbaa !78
  %9 = getelementptr inbounds nuw %struct.FT_GlyphSlotRec_, ptr %8, i32 0, i32 9
  %10 = load i32, ptr %9, align 8, !tbaa !81
  %11 = load ptr, ptr %4, align 8, !tbaa !62
  %12 = getelementptr inbounds nuw %struct.FT_RendererRec_, ptr %11, i32 0, i32 2
  %13 = load i32, ptr %12, align 8, !tbaa !89
  %14 = icmp eq i32 %10, %13
  br i1 %14, label %15, label %19

15:                                               ; preds = %3
  %16 = load ptr, ptr %5, align 8, !tbaa !78
  %17 = getelementptr inbounds nuw %struct.FT_GlyphSlotRec_, ptr %16, i32 0, i32 13
  %18 = load ptr, ptr %6, align 8, !tbaa !102
  call void @FT_Outline_Get_CBox(ptr noundef %17, ptr noundef %18)
  br label %19

19:                                               ; preds = %15, %3
  ret void
}