; Function Attrs: nounwind uwtable
define internal void @ft_raster1_get_cbox(ptr noundef readonly captures(none) %0, ptr noundef %1, ptr noundef initializes((0, 32)) %2) #0 {
  tail call void @llvm.memset.p0.i64(ptr noundef nonnull align 8 dereferenceable(32) %2, i8 0, i64 32, i1 false)
  %4 = getelementptr inbounds nuw i8, ptr %1, i64 144
  %5 = load i32, ptr %4, align 8, !tbaa !62
  %6 = getelementptr inbounds nuw i8, ptr %0, i64 32
  %7 = load i32, ptr %6, align 8, !tbaa !71
  %8 = icmp eq i32 %5, %7
  br i1 %8, label %9, label %11

9:                                                ; preds = %3
  %10 = getelementptr inbounds nuw i8, ptr %1, i64 200
  tail call void @FT_Outline_Get_CBox(ptr noundef nonnull %10, ptr noundef nonnull %2) #10
  br label %11

11:                                               ; preds = %9, %3
  ret void
}